; Function Attrs: mustprogress uwtable
define hidden noundef zeroext i1 @_ZN4lean8is_equalERKNS_4exprES2_(ptr noundef nonnull align 8 dereferenceable(8) %0, ptr noundef nonnull align 8 dereferenceable(8) %1) local_unnamed_addr #0 personality ptr @__gxx_personality_v0 {
  %3 = alloca %"class.lean::expr_eq_fn", align 8
  call void @llvm.lifetime.start.p0(i64 24, ptr nonnull %3) #15
  call void @llvm.memset.p0.i64(ptr noundef nonnull align 8 dereferenceable(24) %3, i8 0, i64 24, i1 false)
  %4 = invoke noundef zeroext i1 @_ZN4lean10expr_eq_fnILb0EE5applyERKNS_4exprES4_jb(ptr noundef nonnull align 8 dereferenceable(24) %3, ptr noundef nonnull align 8 dereferenceable(8) %0, ptr noundef nonnull align 8 dereferenceable(8) %1, i32 noundef 0, i1 noundef zeroext true)
          to label %_ZN4lean10expr_eq_fnILb0EEclERKNS_4exprES4_.exit unwind label %5

_ZN4lean10expr_eq_fnILb0EEclERKNS_4exprES4_.exit: ; preds = %2
  call void @_ZN4lean10expr_eq_fnILb0EED2Ev(ptr noundef nonnull align 8 dereferenceable(24) %3) #15
  call void @llvm.lifetime.end.p0(i64 24, ptr nonnull %3) #15
  ret i1 %4

5:                                                ; preds = %2
  %6 = landingpad { ptr, i32 }
          cleanup
  call void @_ZN4lean10expr_eq_fnILb0EED2Ev(ptr noundef nonnull align 8 dereferenceable(24) %3) #15
  call void @llvm.lifetime.end.p0(i64 24, ptr nonnull %3) #15
  resume { ptr, i32 } %6
}